target datalayout = "e-m:e-p270:32:32-p271:32:32-p272:64:64-i64:64-i128:128-f80:128-n8:16:32:64-S128"
target triple = "x86_64-unknown-linux-gnu"

%"class.rocksdb::Slice" = type { ptr, i64 }

; Function Attrs: mustprogress nounwind uwtable
define internal { ptr, i64 } @_ZNK7rocksdb12_GLOBAL__N_113NoopTransform9TransformERKNS_5SliceE(ptr noundef nonnull align 8 dereferenceable(32) %this, ptr noundef nonnull align 8 dereferenceable(16) %src) unnamed_addr #3 align 2 {
entry:
  %retval = alloca %"class.rocksdb::Slice", align 8
  %this.addr = alloca ptr, align 8
  %src.addr = alloca ptr, align 8
  store ptr %this, ptr %this.addr, align 8
  store ptr %src, ptr %src.addr, align 8
  %0 = load ptr, ptr %src.addr, align 8
  call void @llvm.memcpy.p0.p0.i64(ptr align 8 %retval, ptr align 8 %0, i64 16, i1 false)
  %1 = load { ptr, i64 }, ptr %retval, align 8
  ret { ptr, i64 } %1
}