; Function Attrs: mustprogress nofree norecurse nosync nounwind willreturn memory(argmem: read) uwtable
define internal { ptr, i64 } @_ZNK7rocksdb12_GLOBAL__N_113NoopTransform9TransformERKNS_5SliceE(ptr nocapture nonnull readnone align 8 %this, ptr nocapture noundef nonnull readonly align 8 dereferenceable(16) %src) unnamed_addr #7 align 2 {
entry:
  %retval.sroa.0.0.copyload = load ptr, ptr %src, align 8
  %retval.sroa.2.0.src.addr.0..sroa_idx = getelementptr inbounds i8, ptr %src, i64 8
  %retval.sroa.2.0.copyload = load i64, ptr %retval.sroa.2.0.src.addr.0..sroa_idx, align 8
  %.fca.0.insert = insertvalue { ptr, i64 } poison, ptr %retval.sroa.0.0.copyload, 0
  %.fca.1.insert = insertvalue { ptr, i64 } %.fca.0.insert, i64 %retval.sroa.2.0.copyload, 1
  ret { ptr, i64 } %.fca.1.insert
}